target datalayout = "e-m:e-p270:32:32-p271:32:32-p272:64:64-i64:64-i128:128-f80:128-n8:16:32:64-S128"
target triple = "x86_64-pc-linux-gnu"

%struct.Color = type { i8, i8, i8, i8 }

; Function Attrs: nounwind uwtable
define void @DrawEllipseLines(i32 noundef %0, i32 noundef %1, float noundef %2, float noundef %3, i32 %4) #2 {
  %6 = alloca %struct.Color, align 1
  %7 = alloca i32, align 4
  %8 = alloca i32, align 4
  %9 = alloca float, align 4
  %10 = alloca float, align 4
  %11 = alloca i32, align 4
  store i32 %4, ptr %6, align 1
  store i32 %0, ptr %7, align 4
  store i32 %1, ptr %8, align 4
  store float %2, ptr %9, align 4
  store float %3, ptr %10, align 4
  call void @rlBegin(i32 noundef 1)
  call void @llvm.lifetime.start.p0(i64 4, ptr %11) #8
  store i32 0, ptr %11, align 4
  br label %12

12:                                               ; preds = %59, %5
  %13 = load i32, ptr %11, align 4
  %14 = icmp slt i32 %13, 360
  br i1 %14, label %16, label %15

15:                                               ; preds = %12
  call void @llvm.lifetime.end.p0(i64 4, ptr %11) #8
  br label %62

16:                                               ; preds = %12
  %17 = getelementptr inbounds nuw %struct.Color, ptr %6, i32 0, i32 0
  %18 = load i8, ptr %17, align 1
  %19 = getelementptr inbounds nuw %struct.Color, ptr %6, i32 0, i32 1
  %20 = load i8, ptr %19, align 1
  %21 = getelementptr inbounds nuw %struct.Color, ptr %6, i32 0, i32 2
  %22 = load i8, ptr %21, align 1
  %23 = getelementptr inbounds nuw %struct.Color, ptr %6, i32 0, i32 3
  %24 = load i8, ptr %23, align 1
  call void @rlColor4ub(i8 noundef zeroext %18, i8 noundef zeroext %20, i8 noundef zeroext %22, i8 noundef zeroext %24)
  %25 = load i32, ptr %7, align 4
  %26 = sitofp i32 %25 to float
  %27 = load i32, ptr %11, align 4
  %28 = add nsw i32 %27, 10
  %29 = sitofp i32 %28 to float
  %30 = fmul float 0x3F91DF46A0000000, %29
  %31 = call float @cosf(float noundef %30) #8
  %32 = load float, ptr %9, align 4
  %33 = call float @llvm.fmuladd.f32(float %31, float %32, float %26)
  %34 = load i32, ptr %8, align 4
  %35 = sitofp i32 %34 to float
  %36 = load i32, ptr %11, align 4
  %37 = add nsw i32 %36, 10
  %38 = sitofp i32 %37 to float
  %39 = fmul float 0x3F91DF46A0000000, %38
  %40 = call float @sinf(float noundef %39) #8
  %41 = load float, ptr %10, align 4
  %42 = call float @llvm.fmuladd.f32(float %40, float %41, float %35)
  call void @rlVertex2f(float noundef %33, float noundef %42)
  %43 = load i32, ptr %7, align 4
  %44 = sitofp i32 %43 to float
  %45 = load i32, ptr %11, align 4
  %46 = sitofp i32 %45 to float
  %47 = fmul float 0x3F91DF46A0000000, %46
  %48 = call float @cosf(float noundef %47) #8
  %49 = load float, ptr %9, align 4
  %50 = call float @llvm.fmuladd.f32(float %48, float %49, float %44)
  %51 = load i32, ptr %8, align 4
  %52 = sitofp i32 %51 to float
  %53 = load i32, ptr %11, align 4
  %54 = sitofp i32 %53 to float
  %55 = fmul float 0x3F91DF46A0000000, %54
  %56 = call float @sinf(float noundef %55) #8
  %57 = load float, ptr %10, align 4
  %58 = call float @llvm.fmuladd.f32(float %56, float %57, float %52)
  call void @rlVertex2f(float noundef %50, float noundef %58)
  br label %59

59:                                               ; preds = %16
  %60 = load i32, ptr %11, align 4
  %61 = add nsw i32 %60, 10
  store i32 %61, ptr %11, align 4
  br label %12

62:                                               ; preds = %15
  call void @rlEnd()
  ret void
}